; Function Attrs: nounwind uwtable
define internal fastcc void @fill_items(ptr noundef %0, ptr noundef nonnull captures(none) %1, ptr noundef %2) unnamed_addr #1 {
  %4 = alloca ptr, align 8
  call void @llvm.lifetime.start.p0(i64 8, ptr nonnull %4) #8
  store ptr null, ptr %4, align 8, !tbaa !68
  %5 = load i32, ptr %1, align 4, !tbaa !38
  %6 = icmp sgt i32 %5, 0
  br i1 %6, label %.lr.ph, label %._crit_edge

.lr.ph:                                           ; preds = %3, %15
  %.016 = phi ptr [ null, %15 ], [ %0, %3 ]
  %.01115 = phi i32 [ %.1, %15 ], [ 0, %3 ]
  %.01214 = phi i32 [ %16, %15 ], [ 0, %3 ]
  %7 = call ptr @av_strtok(ptr noundef %.016, ptr noundef nonnull @.str.21, ptr noundef nonnull %4) #8
  %.not = icmp eq ptr %7, null
  br i1 %.not, label %15, label %8

8:                                                ; preds = %.lr.ph
  %9 = sext i32 %.01115 to i64
  %10 = getelementptr inbounds float, ptr %2, i64 %9
  %11 = call i32 (ptr, ptr, ...) @__isoc99_sscanf(ptr noundef nonnull %7, ptr noundef nonnull @.str.22, ptr noundef %10) #8
  %12 = icmp eq i32 %11, 1
  %13 = zext i1 %12 to i32
  %14 = add nsw i32 %.01115, %13
  br label %15

15:                                               ; preds = %8, %.lr.ph
  %.1 = phi i32 [ %14, %8 ], [ %.01115, %.lr.ph ]
  %16 = add nuw nsw i32 %.01214, 1
  %17 = load i32, ptr %1, align 4, !tbaa !38
  %18 = icmp slt i32 %16, %17
  br i1 %18, label %.lr.ph, label %._crit_edge, !llvm.loop !90

._crit_edge:                                      ; preds = %15, %3
  %.011.lcssa = phi i32 [ 0, %3 ], [ %.1, %15 ]
  store i32 %.011.lcssa, ptr %1, align 4, !tbaa !38
  call void @llvm.lifetime.end.p0(i64 8, ptr nonnull %4) #8
  ret void
}